; Function Attrs: mustprogress nounwind
define internal noundef ptr @_ZN3tbb6detail2d216feeder_item_taskIZN4mold3elfL4markINS4_5ARM32EEEvRNS4_7ContextIT_EERNS0_2d117concurrent_vectorIPNS4_12InputSectionIS8_EENSB_23cache_aligned_allocatorISF_EEEEEUlPNSD_IS6_EERNSB_6feederISL_EEE_SL_E6cancelERNSB_14execution_dataE(ptr noundef nonnull align 64 dereferenceable(88) %this, ptr noundef nonnull align 8 dereferenceable(12) %ed) unnamed_addr #4 align 2 {
entry:
  %my_feeder.i = getelementptr inbounds i8, ptr %this, i64 72
  %0 = load ptr, ptr %my_feeder.i, align 8
  %my_wait_context.i = getelementptr inbounds i8, ptr %0, i64 16
  %1 = load ptr, ptr %my_wait_context.i, align 8
  %m_ref_count.i.i.i = getelementptr inbounds i8, ptr %1, i64 8
  %2 = atomicrmw add ptr %m_ref_count.i.i.i, i64 -1 seq_cst, align 8
  %tobool.not.i.i.i = icmp eq i64 %2, 1
  br i1 %tobool.not.i.i.i, label %if.then.i.i.i, label %_ZN3tbb6detail2d216feeder_item_taskIZN4mold3elfL4markINS4_5ARM32EEEvRNS4_7ContextIT_EERNS0_2d117concurrent_vectorIPNS4_12InputSectionIS8_EENSB_23cache_aligned_allocatorISF_EEEEEUlPNSD_IS6_EERNSB_6feederISL_EEE_SL_E8finalizeERKNSB_14execution_dataE.exit

if.then.i.i.i:                                    ; preds = %entry
  %3 = ptrtoint ptr %1 to i64
  tail call void @_ZN3tbb6detail2r114notify_waitersEm(i64 noundef %3) #11
  br label %_ZN3tbb6detail2d216feeder_item_taskIZN4mold3elfL4markINS4_5ARM32EEEvRNS4_7ContextIT_EERNS0_2d117concurrent_vectorIPNS4_12InputSectionIS8_EENSB_23cache_aligned_allocatorISF_EEEEEUlPNSD_IS6_EERNSB_6feederISL_EEE_SL_E8finalizeERKNSB_14execution_dataE.exit

_ZN3tbb6detail2d216feeder_item_taskIZN4mold3elfL4markINS4_5ARM32EEEvRNS4_7ContextIT_EERNS0_2d117concurrent_vectorIPNS4_12InputSectionIS8_EENSB_23cache_aligned_allocatorISF_EEEEEUlPNSD_IS6_EERNSB_6feederISL_EEE_SL_E8finalizeERKNSB_14execution_dataE.exit: ; preds = %entry, %if.then.i.i.i
  %my_allocator.i = getelementptr inbounds i8, ptr %this, i64 80
  %my_allocator.val.i = load i64, ptr %my_allocator.i, align 16
  %4 = inttoptr i64 %my_allocator.val.i to ptr
  %vtable.i.i = load ptr, ptr %this, align 64
  %5 = load ptr, ptr %vtable.i.i, align 8
  tail call void %5(ptr noundef nonnull align 64 dereferenceable(88) %this) #11
  tail call void @_ZN3tbb6detail2r110deallocateERNS0_2d117small_object_poolEPvmRKNS2_14execution_dataE(ptr noundef nonnull align 1 dereferenceable(1) %4, ptr noundef nonnull %this, i64 noundef 128, ptr noundef nonnull align 8 dereferenceable(12) %ed) #11
  ret ptr null
}